; Function Attrs: nounwind uwtable
define range(i32 0, 2) i32 @ossl_quic_tserver_stream_new(ptr noundef readonly captures(none) %0, i32 noundef %1, ptr noundef writeonly captures(none) %2) local_unnamed_addr #0 {
  %4 = getelementptr inbounds nuw i8, ptr %0, i64 96
  %5 = load ptr, ptr %4, align 8, !tbaa !46
  %6 = tail call i32 @ossl_quic_channel_is_active(ptr noundef %5) #6
  %.not = icmp eq i32 %6, 0
  br i1 %.not, label %14, label %7

7:                                                ; preds = %3
  %8 = load ptr, ptr %4, align 8, !tbaa !46
  %9 = tail call ptr @ossl_quic_channel_new_stream_local(ptr noundef %8, i32 noundef %1) #6
  %10 = icmp eq ptr %9, null
  br i1 %10, label %14, label %11

11:                                               ; preds = %7
  %12 = getelementptr inbounds nuw i8, ptr %9, i64 56
  %13 = load i64, ptr %12, align 8, !tbaa !82
  store i64 %13, ptr %2, align 8, !tbaa !20
  br label %14

14:                                               ; preds = %7, %3, %11
  %.0 = phi i32 [ 1, %11 ], [ 0, %3 ], [ 0, %7 ]
  ret i32 %.0
}